target datalayout = "e-m:e-p270:32:32-p271:32:32-p272:64:64-i64:64-i128:128-f80:128-n8:16:32:64-S128"
target triple = "x86_64-pc-linux-gnu"

%struct.tsi_ssl_handshaker_result = type { %struct.tsi_handshaker_result, ptr, ptr, ptr, i64 }
%struct.tsi_handshaker_result = type { ptr }

; Function Attrs: mustprogress uwtable
define internal void @_ZL29ssl_handshaker_result_destroyP21tsi_handshaker_result(ptr noundef %0) #4 {
  %2 = alloca ptr, align 8
  %3 = alloca ptr, align 8
  store ptr %0, ptr %2, align 8, !tbaa !317
  call void @llvm.lifetime.start.p0(i64 8, ptr %3) #3
  %4 = load ptr, ptr %2, align 8, !tbaa !317
  store ptr %4, ptr %3, align 8, !tbaa !320
  %5 = load ptr, ptr %3, align 8, !tbaa !320
  %6 = getelementptr inbounds nuw %struct.tsi_ssl_handshaker_result, ptr %5, i32 0, i32 1
  %7 = load ptr, ptr %6, align 8, !tbaa !322
  call void @SSL_free(ptr noundef %7)
  %8 = load ptr, ptr %3, align 8, !tbaa !320
  %9 = getelementptr inbounds nuw %struct.tsi_ssl_handshaker_result, ptr %8, i32 0, i32 2
  %10 = load ptr, ptr %9, align 8, !tbaa !330
  %11 = call i32 @BIO_free(ptr noundef %10)
  %12 = load ptr, ptr %3, align 8, !tbaa !320
  %13 = getelementptr inbounds nuw %struct.tsi_ssl_handshaker_result, ptr %12, i32 0, i32 3
  %14 = load ptr, ptr %13, align 8, !tbaa !331
  call void @gpr_free(ptr noundef %14)
  %15 = load ptr, ptr %3, align 8, !tbaa !320
  call void @gpr_free(ptr noundef %15)
  call void @llvm.lifetime.end.p0(i64 8, ptr %3) #3
  ret void
}