; Function Attrs: mustprogress uwtable
define internal void @_ZL29ssl_handshaker_result_destroyP21tsi_handshaker_result(ptr noundef %0) #3 {
  %2 = getelementptr inbounds nuw i8, ptr %0, i64 8
  %3 = load ptr, ptr %2, align 8, !tbaa !208
  tail call void @SSL_free(ptr noundef %3)
  %4 = getelementptr inbounds nuw i8, ptr %0, i64 16
  %5 = load ptr, ptr %4, align 8, !tbaa !217
  %6 = tail call i32 @BIO_free(ptr noundef %5)
  %7 = getelementptr inbounds nuw i8, ptr %0, i64 24
  %8 = load ptr, ptr %7, align 8, !tbaa !218
  tail call void @gpr_free(ptr noundef %8)
  tail call void @gpr_free(ptr noundef %0)
  ret void
}